target datalayout = "e-m:e-p270:32:32-p271:32:32-p272:64:64-i64:64-i128:128-f80:128-n8:16:32:64-S128"
target triple = "x86_64-pc-linux-gnu"

@plugin_type = dso_local constant [9 x i8] c"gpu/nvml\00", align 1
@.str.53 = private unnamed_addr constant [65 x i8] c"%s: %s: MIG is disabled, but set to be enabled on next GPU reset\00", align 1
@__func__._nvml_is_device_mig = private unnamed_addr constant [20 x i8] c"_nvml_is_device_mig\00", align 1
@.str.54 = private unnamed_addr constant [65 x i8] c"%s: %s: MIG is enabled, but set to be disabled on next GPU reset\00", align 1
@.str.55 = private unnamed_addr constant [38 x i8] c"Failed to get MIG mode of the GPU: %s\00", align 1

; Function Attrs: nounwind uwtable
define internal void @_nvml_get_device_mig_mode(ptr noundef %0, ptr noundef %1, ptr noundef %2) #0 {
  %4 = alloca ptr, align 8
  %5 = alloca ptr, align 8
  %6 = alloca ptr, align 8
  %7 = alloca i32, align 4
  %8 = alloca i32, align 4
  store ptr %0, ptr %4, align 8
  store ptr %1, ptr %5, align 8
  store ptr %2, ptr %6, align 8
  call void @llvm.lifetime.start.p0(i64 4, ptr %7) #7
  %9 = load ptr, ptr %4, align 8
  %10 = load ptr, ptr %9, align 8
  %11 = load ptr, ptr %5, align 8
  %12 = load ptr, ptr %6, align 8
  %13 = call i32 @nvmlDeviceGetMigMode(ptr noundef %10, ptr noundef %11, ptr noundef %12)
  store i32 %13, ptr %7, align 4
  %14 = load i32, ptr %7, align 4
  %15 = icmp eq i32 %14, 3
  br i1 %15, label %16, label %17

16:                                               ; preds = %3
  store i32 1, ptr %8, align 4
  br label %26

17:                                               ; preds = %3
  %18 = load i32, ptr %7, align 4
  %19 = icmp ne i32 %18, 0
  br i1 %19, label %20, label %24

20:                                               ; preds = %17
  %21 = load i32, ptr %7, align 4
  %22 = call ptr @nvmlErrorString(i32 noundef %21)
  %23 = call i32 (ptr, ...) @slurm_error(ptr noundef @.str.55, ptr noundef %22)
  br label %24

24:                                               ; preds = %20, %17
  br label %25

25:                                               ; preds = %24
  store i32 0, ptr %8, align 4
  br label %26

26:                                               ; preds = %25, %16
  call void @llvm.lifetime.end.p0(i64 4, ptr %7) #7
  %27 = load i32, ptr %8, align 4
  switch i32 %27, label %29 [
    i32 0, label %28
    i32 1, label %28
  ]

28:                                               ; preds = %26, %26
  ret void

29:                                               ; preds = %26
  unreachable
}

; Function Attrs: nounwind uwtable
define internal zeroext i1 @_nvml_is_device_mig(ptr noundef %0) #0 {
  %2 = alloca i1, align 1
  %3 = alloca ptr, align 8
  %4 = alloca i32, align 4
  %5 = alloca i32, align 4
  %6 = alloca i32, align 4
  store ptr %0, ptr %3, align 8
  call void @llvm.lifetime.start.p0(i64 4, ptr %4) #7
  store i32 0, ptr %4, align 4
  call void @llvm.lifetime.start.p0(i64 4, ptr %5) #7
  store i32 0, ptr %5, align 4
  %7 = load ptr, ptr %3, align 8
  call void @_nvml_get_device_mig_mode(ptr noundef %7, ptr noundef %4, ptr noundef %5)
  %8 = load i32, ptr %4, align 4
  %9 = icmp eq i32 %8, 0
  br i1 %9, label %10, label %24

10:                                               ; preds = %1
  %11 = load i32, ptr %5, align 4
  %12 = icmp eq i32 %11, 1
  br i1 %12, label %13, label %24

13:                                               ; preds = %10
  br label %14

14:                                               ; preds = %13
  br label %15

15:                                               ; preds = %14
  %16 = call i32 @slurm_get_log_level()
  %17 = icmp sge i32 %16, 3
  br i1 %17, label %18, label %19

18:                                               ; preds = %15
  call void (i32, ptr, ...) @slurm_log_var(i32 noundef 3, ptr noundef @.str.53, ptr noundef @plugin_type, ptr noundef @__func__._nvml_is_device_mig)
  br label %19

19:                                               ; preds = %18, %15
  br label %20

20:                                               ; preds = %19
  br label %21

21:                                               ; preds = %20
  br label %22

22:                                               ; preds = %21
  br label %23

23:                                               ; preds = %22
  br label %42

24:                                               ; preds = %10, %1
  %25 = load i32, ptr %4, align 4
  %26 = icmp eq i32 %25, 1
  br i1 %26, label %27, label %41

27:                                               ; preds = %24
  %28 = load i32, ptr %5, align 4
  %29 = icmp eq i32 %28, 0
  br i1 %29, label %30, label %41

30:                                               ; preds = %27
  br label %31

31:                                               ; preds = %30
  br label %32

32:                                               ; preds = %31
  %33 = call i32 @slurm_get_log_level()
  %34 = icmp sge i32 %33, 3
  br i1 %34, label %35, label %36

35:                                               ; preds = %32
  call void (i32, ptr, ...) @slurm_log_var(i32 noundef 3, ptr noundef @.str.54, ptr noundef @plugin_type, ptr noundef @__func__._nvml_is_device_mig)
  br label %36

36:                                               ; preds = %35, %32
  br label %37

37:                                               ; preds = %36
  br label %38

38:                                               ; preds = %37
  br label %39

39:                                               ; preds = %38
  br label %40

40:                                               ; preds = %39
  br label %41

41:                                               ; preds = %40, %27, %24
  br label %42

42:                                               ; preds = %41, %23
  %43 = load i32, ptr %4, align 4
  %44 = icmp eq i32 %43, 1
  br i1 %44, label %45, label %46

45:                                               ; preds = %42
  store i1 true, ptr %2, align 1
  store i32 1, ptr %6, align 4
  br label %47

46:                                               ; preds = %42
  store i1 false, ptr %2, align 1
  store i32 1, ptr %6, align 4
  br label %47

47:                                               ; preds = %46, %45
  call void @llvm.lifetime.end.p0(i64 4, ptr %5) #7
  call void @llvm.lifetime.end.p0(i64 4, ptr %4) #7
  %48 = load i1, ptr %2, align 1
  ret i1 %48
}