; Function Attrs: nounwind uwtable
define internal fastcc zeroext i1 @_nvml_is_device_mig(ptr %.0.val) unnamed_addr #0 {
  %1 = alloca i32, align 4
  %2 = alloca i32, align 4
  call void @llvm.lifetime.start.p0(i64 4, ptr nonnull %1) #12
  store i32 0, ptr %1, align 4
  call void @llvm.lifetime.start.p0(i64 4, ptr nonnull %2) #12
  store i32 0, ptr %2, align 4
  %3 = call i32 @nvmlDeviceGetMigMode(ptr noundef %.0.val, ptr noundef nonnull %1, ptr noundef nonnull %2) #12
  switch i32 %3, label %4 [
    i32 3, label %_nvml_get_device_mig_mode.exit
    i32 0, label %_nvml_get_device_mig_mode.exit
  ]

4:                                                ; preds = %0
  %5 = call ptr @nvmlErrorString(i32 noundef %3) #12
  %6 = call i32 (ptr, ...) @slurm_error(ptr noundef nonnull @.str.55, ptr noundef %5) #12
  br label %_nvml_get_device_mig_mode.exit

_nvml_get_device_mig_mode.exit:                   ; preds = %0, %0, %4
  %7 = load i32, ptr %1, align 4
  %8 = icmp eq i32 %7, 0
  %9 = load i32, ptr %2, align 4
  %10 = icmp eq i32 %9, 1
  %or.cond = select i1 %8, i1 %10, i1 false
  br i1 %or.cond, label %11, label %14

11:                                               ; preds = %_nvml_get_device_mig_mode.exit
  %12 = call i32 @slurm_get_log_level() #12
  %13 = icmp sgt i32 %12, 2
  br i1 %13, label %.sink.split, label %20

14:                                               ; preds = %_nvml_get_device_mig_mode.exit
  %15 = icmp eq i32 %7, 1
  %16 = icmp eq i32 %9, 0
  %or.cond3 = select i1 %15, i1 %16, i1 false
  br i1 %or.cond3, label %17, label %20

17:                                               ; preds = %14
  %18 = call i32 @slurm_get_log_level() #12
  %19 = icmp sgt i32 %18, 2
  br i1 %19, label %.sink.split, label %20

.sink.split:                                      ; preds = %17, %11
  %.str.54.sink = phi ptr [ @.str.53, %11 ], [ @.str.54, %17 ]
  call void (i32, ptr, ...) @slurm_log_var(i32 noundef 3, ptr noundef nonnull %.str.54.sink, ptr noundef nonnull @plugin_type, ptr noundef nonnull @__func__._nvml_is_device_mig) #12
  br label %20

20:                                               ; preds = %.sink.split, %14, %17, %11
  %21 = load i32, ptr %1, align 4
  %22 = icmp eq i32 %21, 1
  call void @llvm.lifetime.end.p0(i64 4, ptr nonnull %2) #12
  call void @llvm.lifetime.end.p0(i64 4, ptr nonnull %1) #12
  ret i1 %22
}